target datalayout = "e-m:e-p270:32:32-p271:32:32-p272:64:64-i64:64-i128:128-f80:128-n8:16:32:64-S128"
target triple = "x86_64-pc-linux-gnu"

%struct.__va_list_tag = type { i32, i32, ptr, ptr }

@Curl_cfree = external global ptr, align 8

; Function Attrs: nounwind uwtable
define dso_local i32 @Curl_mime_add_header(ptr noundef %0, ptr noundef %1, ...) #0 {
  %3 = alloca ptr, align 8
  %4 = alloca ptr, align 8
  %5 = alloca ptr, align 8
  %6 = alloca ptr, align 8
  %7 = alloca [1 x %struct.__va_list_tag], align 16
  store ptr %0, ptr %3, align 8, !tbaa !80
  store ptr %1, ptr %4, align 8, !tbaa !49
  call void @llvm.lifetime.start.p0(i64 8, ptr %5) #8
  store ptr null, ptr %5, align 8, !tbaa !47
  call void @llvm.lifetime.start.p0(i64 8, ptr %6) #8
  store ptr null, ptr %6, align 8, !tbaa !49
  call void @llvm.lifetime.start.p0(i64 24, ptr %7) #8
  %8 = getelementptr inbounds [1 x %struct.__va_list_tag], ptr %7, i64 0, i64 0
  call void @llvm.va_start.p0(ptr %8)
  %9 = load ptr, ptr %4, align 8, !tbaa !49
  %10 = getelementptr inbounds [1 x %struct.__va_list_tag], ptr %7, i64 0, i64 0
  %11 = call ptr @curl_mvaprintf(ptr noundef %9, ptr noundef %10)
  store ptr %11, ptr %6, align 8, !tbaa !49
  %12 = getelementptr inbounds [1 x %struct.__va_list_tag], ptr %7, i64 0, i64 0
  call void @llvm.va_end.p0(ptr %12)
  %13 = load ptr, ptr %6, align 8, !tbaa !49
  %14 = icmp ne ptr %13, null
  br i1 %14, label %15, label %29

15:                                               ; preds = %2
  %16 = load ptr, ptr %3, align 8, !tbaa !80
  %17 = load ptr, ptr %16, align 8, !tbaa !47
  %18 = load ptr, ptr %6, align 8, !tbaa !49
  %19 = call ptr @Curl_slist_append_nodup(ptr noundef %17, ptr noundef %18)
  store ptr %19, ptr %5, align 8, !tbaa !47
  %20 = load ptr, ptr %5, align 8, !tbaa !47
  %21 = icmp ne ptr %20, null
  br i1 %21, label %22, label %25

22:                                               ; preds = %15
  %23 = load ptr, ptr %5, align 8, !tbaa !47
  %24 = load ptr, ptr %3, align 8, !tbaa !80
  store ptr %23, ptr %24, align 8, !tbaa !47
  br label %28

25:                                               ; preds = %15
  %26 = load ptr, ptr @Curl_cfree, align 8, !tbaa !22
  %27 = load ptr, ptr %6, align 8, !tbaa !49
  call void %26(ptr noundef %27)
  br label %28

28:                                               ; preds = %25, %22
  br label %29

29:                                               ; preds = %28, %2
  %30 = load ptr, ptr %5, align 8, !tbaa !47
  %31 = icmp ne ptr %30, null
  %32 = select i1 %31, i32 0, i32 27
  call void @llvm.lifetime.end.p0(i64 24, ptr %7) #8
  call void @llvm.lifetime.end.p0(i64 8, ptr %6) #8
  call void @llvm.lifetime.end.p0(i64 8, ptr %5) #8
  ret i32 %32
}