; Function Attrs: nounwind uwtable
define dso_local range(i32 0, 28) i32 @Curl_mime_add_header(ptr noundef captures(none) %0, ptr noundef %1, ...) local_unnamed_addr #0 {
  %3 = alloca [1 x %struct.__va_list_tag], align 16
  call void @llvm.lifetime.start.p0(i64 24, ptr nonnull %3) #18
  call void @llvm.va_start.p0(ptr nonnull %3)
  %4 = call ptr @curl_mvaprintf(ptr noundef %1, ptr noundef nonnull %3) #18
  call void @llvm.va_end.p0(ptr nonnull %3)
  %.not = icmp eq ptr %4, null
  br i1 %.not, label %11, label %5

5:                                                ; preds = %2
  %6 = load ptr, ptr %0, align 8, !tbaa !73
  %7 = call ptr @Curl_slist_append_nodup(ptr noundef %6, ptr noundef nonnull %4) #18
  %.not11 = icmp eq ptr %7, null
  br i1 %.not11, label %9, label %8

8:                                                ; preds = %5
  store ptr %7, ptr %0, align 8, !tbaa !73
  br label %11

9:                                                ; preds = %5
  %10 = load ptr, ptr @Curl_cfree, align 8, !tbaa !29
  call void %10(ptr noundef nonnull %4) #18
  br label %11

11:                                               ; preds = %8, %9, %2
  %.0 = phi i32 [ 0, %8 ], [ 27, %9 ], [ 27, %2 ]
  call void @llvm.lifetime.end.p0(i64 24, ptr nonnull %3) #18
  ret i32 %.0
}